target datalayout = "e-m:e-p270:32:32-p271:32:32-p272:64:64-i64:64-i128:128-f80:128-n8:16:32:64-S128"
target triple = "x86_64-pc-linux-gnu"

%struct._object = type { %union.anon, ptr }
%union.anon = type { i64 }
%struct._typeobject = type { %struct.PyVarObject, ptr, i64, i64, ptr, i64, ptr, ptr, ptr, ptr, ptr, ptr, ptr, ptr, ptr, ptr, ptr, ptr, ptr, i64, ptr, ptr, ptr, ptr, i64, ptr, ptr, ptr, ptr, ptr, ptr, ptr, ptr, ptr, i64, ptr, ptr, ptr, ptr, ptr, ptr, ptr, ptr, ptr, ptr, ptr, i32, ptr, ptr, i8, i16 }
%struct.PyVarObject = type { %struct._object, i64 }
%struct.PyListObject = type { %struct.PyVarObject, ptr, i64 }
%struct.anon = type { i32, i32 }

@_Py_NoneStruct = external global %struct._object, align 8
@.str.8 = private unnamed_addr constant [36 x i8] c"../cpython/Modules/_testcapi/list.c\00", align 1
@.str.10 = private unnamed_addr constant [17 x i8] c"PyList_Check(op)\00", align 1
@.str.11 = private unnamed_addr constant [40 x i8] c"../cpython/Include/cpython/listobject.h\00", align 1
@__PRETTY_FUNCTION__.PyList_SET_ITEM = private unnamed_addr constant [57 x i8] c"void PyList_SET_ITEM(PyObject *, Py_ssize_t, PyObject *)\00", align 1
@.str.18 = private unnamed_addr constant [11 x i8] c"0 <= index\00", align 1
@.str.19 = private unnamed_addr constant [24 x i8] c"index < list->allocated\00", align 1
@.str.21 = private unnamed_addr constant [19 x i8] c"PyList_Check(list)\00", align 1
@__PRETTY_FUNCTION__.test_list_api = private unnamed_addr constant [48 x i8] c"PyObject *test_list_api(PyObject *, PyObject *)\00", align 1
@PyExc_AssertionError = external global ptr, align 8
@.str.22 = private unnamed_addr constant [34 x i8] c"test_list_api: reverse screwed up\00", align 1

; Function Attrs: alwaysinline nounwind uwtable
define internal i32 @_Py_IsImmortal(ptr noundef %0) #5 {
  %2 = alloca ptr, align 8
  store ptr %0, ptr %2, align 8, !tbaa !3
  %3 = load ptr, ptr %2, align 8, !tbaa !3
  %4 = getelementptr inbounds nuw %struct._object, ptr %3, i32 0, i32 0
  %5 = getelementptr inbounds nuw %struct.anon, ptr %4, i32 0, i32 0
  %6 = load i32, ptr %5, align 8, !tbaa !32
  %7 = icmp slt i32 %6, 0
  %8 = zext i1 %7 to i32
  ret i32 %8
}

; Function Attrs: inlinehint nounwind uwtable
define internal i32 @PyType_HasFeature(ptr noundef %0, i64 noundef %1) #3 {
  %3 = alloca ptr, align 8
  %4 = alloca i64, align 8
  %5 = alloca i64, align 8
  store ptr %0, ptr %3, align 8, !tbaa !22
  store i64 %1, ptr %4, align 8, !tbaa !8
  call void @llvm.lifetime.start.p0(i64 8, ptr %5) #6
  %6 = load ptr, ptr %3, align 8, !tbaa !22
  %7 = getelementptr inbounds nuw %struct._typeobject, ptr %6, i32 0, i32 19
  %8 = load i64, ptr %7, align 8, !tbaa !23
  store i64 %8, ptr %5, align 8, !tbaa !8
  %9 = load i64, ptr %5, align 8, !tbaa !8
  %10 = load i64, ptr %4, align 8, !tbaa !8
  %11 = and i64 %9, %10
  %12 = icmp ne i64 %11, 0
  %13 = zext i1 %12 to i32
  call void @llvm.lifetime.end.p0(i64 8, ptr %5) #6
  ret i32 %13
}

; Function Attrs: inlinehint nounwind uwtable
define internal ptr @_Py_TYPE(ptr noundef %0) #3 {
  %2 = alloca ptr, align 8
  store ptr %0, ptr %2, align 8, !tbaa !3
  %3 = load ptr, ptr %2, align 8, !tbaa !3
  %4 = getelementptr inbounds nuw %struct._object, ptr %3, i32 0, i32 1
  %5 = load ptr, ptr %4, align 8, !tbaa !30
  ret ptr %5
}

; Function Attrs: inlinehint nounwind uwtable
define internal void @PyList_SET_ITEM(ptr noundef %0, i64 noundef %1, ptr noundef %2) #3 {
  %4 = alloca ptr, align 8
  %5 = alloca i64, align 8
  %6 = alloca ptr, align 8
  %7 = alloca ptr, align 8
  store ptr %0, ptr %4, align 8, !tbaa !3
  store i64 %1, ptr %5, align 8, !tbaa !8
  store ptr %2, ptr %6, align 8, !tbaa !3
  call void @llvm.lifetime.start.p0(i64 8, ptr %7) #6
  %8 = load ptr, ptr %4, align 8, !tbaa !3
  %9 = call ptr @_Py_TYPE(ptr noundef %8)
  %10 = call i32 @PyType_HasFeature(ptr noundef %9, i64 noundef 33554432)
  %11 = icmp ne i32 %10, 0
  br i1 %11, label %12, label %13

12:                                               ; preds = %3
  br label %15

13:                                               ; preds = %3
  call void @__assert_fail(ptr noundef @.str.10, ptr noundef @.str.11, i32 noundef 44, ptr noundef @__PRETTY_FUNCTION__.PyList_SET_ITEM) #7
  unreachable

14:                                               ; No predecessors!
  br label %15

15:                                               ; preds = %14, %12
  %16 = load ptr, ptr %4, align 8, !tbaa !3
  store ptr %16, ptr %7, align 8, !tbaa !21
  %17 = load i64, ptr %5, align 8, !tbaa !8
  %18 = icmp sle i64 0, %17
  br i1 %18, label %19, label %20

19:                                               ; preds = %15
  br label %22

20:                                               ; preds = %15
  call void @__assert_fail(ptr noundef @.str.18, ptr noundef @.str.11, i32 noundef 45, ptr noundef @__PRETTY_FUNCTION__.PyList_SET_ITEM) #7
  unreachable

21:                                               ; No predecessors!
  br label %22

22:                                               ; preds = %21, %19
  %23 = load i64, ptr %5, align 8, !tbaa !8
  %24 = load ptr, ptr %7, align 8, !tbaa !21
  %25 = getelementptr inbounds nuw %struct.PyListObject, ptr %24, i32 0, i32 2
  %26 = load i64, ptr %25, align 8, !tbaa !33
  %27 = icmp slt i64 %23, %26
  br i1 %27, label %28, label %29

28:                                               ; preds = %22
  br label %31

29:                                               ; preds = %22
  call void @__assert_fail(ptr noundef @.str.19, ptr noundef @.str.11, i32 noundef 46, ptr noundef @__PRETTY_FUNCTION__.PyList_SET_ITEM) #7
  unreachable

30:                                               ; No predecessors!
  br label %31

31:                                               ; preds = %30, %28
  %32 = load ptr, ptr %6, align 8, !tbaa !3
  %33 = load ptr, ptr %7, align 8, !tbaa !21
  %34 = getelementptr inbounds nuw %struct.PyListObject, ptr %33, i32 0, i32 1
  %35 = load ptr, ptr %34, align 8, !tbaa !10
  %36 = load i64, ptr %5, align 8, !tbaa !8
  %37 = getelementptr ptr, ptr %35, i64 %36
  store ptr %32, ptr %37, align 8, !tbaa !3
  call void @llvm.lifetime.end.p0(i64 8, ptr %7) #6
  ret void
}

; Function Attrs: alwaysinline nounwind uwtable
define internal void @Py_DECREF(ptr noundef %0) #5 {
  %2 = alloca ptr, align 8
  store ptr %0, ptr %2, align 8, !tbaa !3
  %3 = load ptr, ptr %2, align 8, !tbaa !3
  %4 = call i32 @_Py_IsImmortal(ptr noundef %3)
  %5 = icmp ne i32 %4, 0
  br i1 %5, label %6, label %7

6:                                                ; preds = %1
  br label %16

7:                                                ; preds = %1
  %8 = load ptr, ptr %2, align 8, !tbaa !3
  %9 = getelementptr inbounds nuw %struct._object, ptr %8, i32 0, i32 0
  %10 = getelementptr inbounds nuw %struct.anon, ptr %9, i32 0, i32 0
  %11 = load i32, ptr %10, align 8, !tbaa !32
  %12 = add i32 %11, -1
  store i32 %12, ptr %10, align 8, !tbaa !32
  %13 = icmp eq i32 %12, 0
  br i1 %13, label %14, label %16

14:                                               ; preds = %7
  %15 = load ptr, ptr %2, align 8, !tbaa !3
  call void @_Py_Dealloc(ptr noundef %15)
  br label %16

16:                                               ; preds = %6, %14, %7
  ret void
}

; Function Attrs: nounwind uwtable
define internal ptr @test_list_api(ptr noundef %0, ptr noundef %1) #0 {
  %3 = alloca ptr, align 8
  %4 = alloca ptr, align 8
  %5 = alloca ptr, align 8
  %6 = alloca ptr, align 8
  %7 = alloca i32, align 4
  %8 = alloca i32, align 4
  %9 = alloca ptr, align 8
  %10 = alloca ptr, align 8
  store ptr %0, ptr %4, align 8, !tbaa !3
  store ptr %1, ptr %5, align 8, !tbaa !3
  call void @llvm.lifetime.start.p0(i64 8, ptr %6) #6
  call void @llvm.lifetime.start.p0(i64 4, ptr %7) #6
  %11 = call ptr @PyList_New(i64 noundef 30)
  store ptr %11, ptr %6, align 8, !tbaa !3
  %12 = load ptr, ptr %6, align 8, !tbaa !3
  %13 = icmp eq ptr %12, null
  br i1 %13, label %14, label %15

14:                                               ; preds = %2
  store ptr null, ptr %3, align 8
  store i32 1, ptr %8, align 4
  br label %83

15:                                               ; preds = %2
  store i32 0, ptr %7, align 4, !tbaa !16
  br label %16

16:                                               ; preds = %35, %15
  %17 = load i32, ptr %7, align 4, !tbaa !16
  %18 = icmp slt i32 %17, 30
  br i1 %18, label %19, label %38

19:                                               ; preds = %16
  call void @llvm.lifetime.start.p0(i64 8, ptr %9) #6
  %20 = load i32, ptr %7, align 4, !tbaa !16
  %21 = sext i32 %20 to i64
  %22 = call ptr @PyLong_FromLong(i64 noundef %21)
  store ptr %22, ptr %9, align 8, !tbaa !3
  %23 = load ptr, ptr %9, align 8, !tbaa !3
  %24 = icmp eq ptr %23, null
  br i1 %24, label %25, label %27

25:                                               ; preds = %19
  %26 = load ptr, ptr %6, align 8, !tbaa !3
  call void @Py_DECREF(ptr noundef %26)
  store ptr null, ptr %3, align 8
  store i32 1, ptr %8, align 4
  br label %32

27:                                               ; preds = %19
  %28 = load ptr, ptr %6, align 8, !tbaa !3
  %29 = load i32, ptr %7, align 4, !tbaa !16
  %30 = sext i32 %29 to i64
  %31 = load ptr, ptr %9, align 8, !tbaa !3
  call void @PyList_SET_ITEM(ptr noundef %28, i64 noundef %30, ptr noundef %31)
  store i32 0, ptr %8, align 4
  br label %32

32:                                               ; preds = %27, %25
  call void @llvm.lifetime.end.p0(i64 8, ptr %9) #6
  %33 = load i32, ptr %8, align 4
  switch i32 %33, label %83 [
    i32 0, label %34
  ]

34:                                               ; preds = %32
  br label %35

35:                                               ; preds = %34
  %36 = load i32, ptr %7, align 4, !tbaa !16
  %37 = add i32 %36, 1
  store i32 %37, ptr %7, align 4, !tbaa !16
  br label %16, !llvm.loop !18

38:                                               ; preds = %16
  %39 = load ptr, ptr %6, align 8, !tbaa !3
  %40 = call i32 @PyList_Reverse(ptr noundef %39)
  store i32 %40, ptr %7, align 4, !tbaa !16
  %41 = load i32, ptr %7, align 4, !tbaa !16
  %42 = icmp ne i32 %41, 0
  br i1 %42, label %43, label %45

43:                                               ; preds = %38
  %44 = load ptr, ptr %6, align 8, !tbaa !3
  call void @Py_DECREF(ptr noundef %44)
  store ptr null, ptr %3, align 8
  store i32 1, ptr %8, align 4
  br label %83

45:                                               ; preds = %38
  store i32 0, ptr %7, align 4, !tbaa !16
  br label %46

46:                                               ; preds = %78, %45
  %47 = load i32, ptr %7, align 4, !tbaa !16
  %48 = icmp slt i32 %47, 30
  br i1 %48, label %49, label %81

49:                                               ; preds = %46
  call void @llvm.lifetime.start.p0(i64 8, ptr %10) #6
  %50 = load ptr, ptr %6, align 8, !tbaa !3
  %51 = call ptr @_Py_TYPE(ptr noundef %50)
  %52 = call i32 @PyType_HasFeature(ptr noundef %51, i64 noundef 33554432)
  %53 = icmp ne i32 %52, 0
  br i1 %53, label %54, label %55

54:                                               ; preds = %49
  br label %57

55:                                               ; preds = %49
  call void @__assert_fail(ptr noundef @.str.21, ptr noundef @.str.8, i32 noundef 91, ptr noundef @__PRETTY_FUNCTION__.test_list_api) #7
  unreachable

56:                                               ; No predecessors!
  br label %57

57:                                               ; preds = %56, %54
  %58 = load ptr, ptr %6, align 8, !tbaa !3
  %59 = getelementptr inbounds nuw %struct.PyListObject, ptr %58, i32 0, i32 1
  %60 = load ptr, ptr %59, align 8, !tbaa !10
  %61 = load i32, ptr %7, align 4, !tbaa !16
  %62 = sext i32 %61 to i64
  %63 = getelementptr ptr, ptr %60, i64 %62
  %64 = load ptr, ptr %63, align 8, !tbaa !3
  store ptr %64, ptr %10, align 8, !tbaa !3
  %65 = load ptr, ptr %10, align 8, !tbaa !3
  %66 = call i64 @PyLong_AsLong(ptr noundef %65)
  %67 = load i32, ptr %7, align 4, !tbaa !16
  %68 = sub i32 29, %67
  %69 = sext i32 %68 to i64
  %70 = icmp ne i64 %66, %69
  br i1 %70, label %71, label %74

71:                                               ; preds = %57
  %72 = load ptr, ptr @PyExc_AssertionError, align 8, !tbaa !3
  call void @PyErr_SetString(ptr noundef %72, ptr noundef @.str.22)
  %73 = load ptr, ptr %6, align 8, !tbaa !3
  call void @Py_DECREF(ptr noundef %73)
  store ptr null, ptr %3, align 8
  store i32 1, ptr %8, align 4
  br label %75

74:                                               ; preds = %57
  store i32 0, ptr %8, align 4
  br label %75

75:                                               ; preds = %74, %71
  call void @llvm.lifetime.end.p0(i64 8, ptr %10) #6
  %76 = load i32, ptr %8, align 4
  switch i32 %76, label %83 [
    i32 0, label %77
  ]

77:                                               ; preds = %75
  br label %78

78:                                               ; preds = %77
  %79 = load i32, ptr %7, align 4, !tbaa !16
  %80 = add i32 %79, 1
  store i32 %80, ptr %7, align 4, !tbaa !16
  br label %46, !llvm.loop !20

81:                                               ; preds = %46
  %82 = load ptr, ptr %6, align 8, !tbaa !3
  call void @Py_DECREF(ptr noundef %82)
  store ptr @_Py_NoneStruct, ptr %3, align 8
  store i32 1, ptr %8, align 4
  br label %83

83:                                               ; preds = %81, %75, %43, %32, %14
  call void @llvm.lifetime.end.p0(i64 4, ptr %7) #6
  call void @llvm.lifetime.end.p0(i64 8, ptr %6) #6
  %84 = load ptr, ptr %3, align 8
  ret ptr %84
}