; Function Attrs: nounwind uwtable
define internal noundef ptr @test_list_api(ptr readnone captures(none) %0, ptr readnone captures(none) %1) #0 {
  %3 = tail call ptr @PyList_New(i64 noundef 30) #5
  %4 = icmp eq ptr %3, null
  br i1 %4, label %Py_DECREF.exit34, label %.preheader44

.preheader44:                                     ; preds = %2
  %5 = getelementptr i8, ptr %3, i64 8
  %6 = getelementptr inbounds nuw i8, ptr %3, i64 32
  %7 = getelementptr inbounds nuw i8, ptr %3, i64 24
  br label %8

8:                                                ; preds = %.preheader44, %23
  %indvars.iv = phi i64 [ 0, %.preheader44 ], [ %indvars.iv.next, %23 ]
  %9 = tail call ptr @PyLong_FromLong(i64 noundef %indvars.iv) #5
  %.not32 = icmp eq ptr %9, null
  br i1 %.not32, label %10, label %15

10:                                               ; preds = %8
  %11 = load i32, ptr %3, align 8, !tbaa !26
  %.not.i = icmp sgt i32 %11, -1
  br i1 %.not.i, label %12, label %Py_DECREF.exit34

12:                                               ; preds = %10
  %13 = add nsw i32 %11, -1
  store i32 %13, ptr %3, align 8, !tbaa !26
  %14 = icmp eq i32 %13, 0
  br i1 %14, label %Py_DECREF.exit34.sink.split, label %Py_DECREF.exit34

15:                                               ; preds = %8
  %.val.i = load ptr, ptr %5, align 8, !tbaa !3
  %16 = getelementptr i8, ptr %.val.i, i64 168
  %.val7.i = load i64, ptr %16, align 8, !tbaa !9
  %17 = and i64 %.val7.i, 33554432
  %.not.i43 = icmp eq i64 %17, 0
  br i1 %.not.i43, label %18, label %19

18:                                               ; preds = %15
  tail call void @__assert_fail(ptr noundef nonnull @.str.10, ptr noundef nonnull @.str.11, i32 noundef 44, ptr noundef nonnull @__PRETTY_FUNCTION__.PyList_SET_ITEM) #6
  unreachable

19:                                               ; preds = %15
  %20 = load i64, ptr %6, align 8, !tbaa !27
  %21 = icmp sgt i64 %20, %indvars.iv
  br i1 %21, label %23, label %22

22:                                               ; preds = %19
  tail call void @__assert_fail(ptr noundef nonnull @.str.19, ptr noundef nonnull @.str.11, i32 noundef 46, ptr noundef nonnull @__PRETTY_FUNCTION__.PyList_SET_ITEM) #6
  unreachable

23:                                               ; preds = %19
  %24 = load ptr, ptr %7, align 8, !tbaa !22
  %25 = getelementptr ptr, ptr %24, i64 %indvars.iv
  store ptr %9, ptr %25, align 8, !tbaa !21
  %indvars.iv.next = add nuw nsw i64 %indvars.iv, 1
  %exitcond.not = icmp eq i64 %indvars.iv.next, 30
  br i1 %exitcond.not, label %26, label %8, !llvm.loop !28

26:                                               ; preds = %23
  %27 = tail call i32 @PyList_Reverse(ptr noundef nonnull %3) #5
  %.not = icmp eq i32 %27, 0
  br i1 %.not, label %.preheader, label %28

28:                                               ; preds = %26
  %29 = load i32, ptr %3, align 8, !tbaa !26
  %.not.i33 = icmp sgt i32 %29, -1
  br i1 %.not.i33, label %30, label %Py_DECREF.exit34

30:                                               ; preds = %28
  %31 = add nsw i32 %29, -1
  store i32 %31, ptr %3, align 8, !tbaa !26
  %32 = icmp eq i32 %31, 0
  br i1 %32, label %Py_DECREF.exit34.sink.split, label %Py_DECREF.exit34

33:                                               ; preds = %.critedge
  %indvars.iv.next49 = add nuw nsw i64 %indvars.iv48, 1
  %exitcond51.not = icmp eq i64 %indvars.iv.next49, 30
  br i1 %exitcond51.not, label %48, label %.preheader, !llvm.loop !30

.preheader:                                       ; preds = %26, %33
  %indvars.iv48 = phi i64 [ %indvars.iv.next49, %33 ], [ 0, %26 ]
  %.val = load ptr, ptr %5, align 8, !tbaa !3
  %34 = getelementptr i8, ptr %.val, i64 168
  %.val42 = load i64, ptr %34, align 8, !tbaa !9
  %35 = and i64 %.val42, 33554432
  %.not30 = icmp eq i64 %35, 0
  br i1 %.not30, label %36, label %.critedge

36:                                               ; preds = %.preheader
  tail call void @__assert_fail(ptr noundef nonnull @.str.21, ptr noundef nonnull @.str.8, i32 noundef 91, ptr noundef nonnull @__PRETTY_FUNCTION__.test_list_api) #6
  unreachable

.critedge:                                        ; preds = %.preheader
  %37 = load ptr, ptr %7, align 8, !tbaa !22
  %38 = getelementptr ptr, ptr %37, i64 %indvars.iv48
  %39 = load ptr, ptr %38, align 8, !tbaa !21
  %40 = tail call i64 @PyLong_AsLong(ptr noundef %39) #5
  %41 = sub nuw nsw i64 29, %indvars.iv48
  %.not31 = icmp eq i64 %40, %41
  br i1 %.not31, label %33, label %42

42:                                               ; preds = %.critedge
  %43 = load ptr, ptr @PyExc_AssertionError, align 8, !tbaa !21
  tail call void @PyErr_SetString(ptr noundef %43, ptr noundef nonnull @.str.22) #5
  %44 = load i32, ptr %3, align 8, !tbaa !26
  %.not.i35 = icmp sgt i32 %44, -1
  br i1 %.not.i35, label %45, label %Py_DECREF.exit34

45:                                               ; preds = %42
  %46 = add nsw i32 %44, -1
  store i32 %46, ptr %3, align 8, !tbaa !26
  %47 = icmp eq i32 %46, 0
  br i1 %47, label %Py_DECREF.exit34.sink.split, label %Py_DECREF.exit34

48:                                               ; preds = %33
  %49 = load i32, ptr %3, align 8, !tbaa !26
  %.not.i37 = icmp sgt i32 %49, -1
  br i1 %.not.i37, label %50, label %Py_DECREF.exit34

50:                                               ; preds = %48
  %51 = add nsw i32 %49, -1
  store i32 %51, ptr %3, align 8, !tbaa !26
  %52 = icmp eq i32 %51, 0
  br i1 %52, label %Py_DECREF.exit34.sink.split, label %Py_DECREF.exit34

Py_DECREF.exit34.sink.split:                      ; preds = %50, %45, %30, %12
  %.0.ph = phi ptr [ null, %12 ], [ null, %30 ], [ null, %45 ], [ @_Py_NoneStruct, %50 ]
  tail call void @_Py_Dealloc(ptr noundef nonnull %3) #5
  br label %Py_DECREF.exit34

Py_DECREF.exit34:                                 ; preds = %Py_DECREF.exit34.sink.split, %10, %12, %50, %48, %45, %42, %30, %28, %2
  %.0 = phi ptr [ null, %2 ], [ null, %28 ], [ null, %30 ], [ null, %42 ], [ null, %45 ], [ @_Py_NoneStruct, %48 ], [ @_Py_NoneStruct, %50 ], [ null, %12 ], [ null, %10 ], [ %.0.ph, %Py_DECREF.exit34.sink.split ]
  ret ptr %.0
}